target datalayout = "e-m:e-p270:32:32-p271:32:32-p272:64:64-i64:64-i128:128-f80:128-n8:16:32:64-S128"
target triple = "x86_64-pc-linux-gnu"

%struct.SDL_AudioDriver = type { ptr, ptr, %struct.SDL_AudioDriverImpl, ptr, ptr, ptr, i32, i32, %struct.SDL_PendingAudioDeviceEvent, ptr, %struct.SDL_AtomicInt, %struct.SDL_AtomicInt, %struct.SDL_AtomicInt }
%struct.SDL_AudioDriverImpl = type { ptr, ptr, ptr, ptr, ptr, ptr, ptr, ptr, ptr, ptr, ptr, ptr, ptr, ptr, i8, i8, i8, i8 }
%struct.SDL_PendingAudioDeviceEvent = type { i32, i32, ptr }
%struct.SDL_AtomicInt = type { i32 }
%struct.SDL_AudioSpec = type { i32, i32, i32 }
%struct.SDL_AudioDevice = type { ptr, ptr, %struct.SDL_AtomicInt, ptr, ptr, ptr, ptr, ptr, ptr, ptr, i32, ptr, %struct.SDL_AudioSpec, i32, ptr, %struct.SDL_AudioSpec, i32, i32, %struct.SDL_AtomicInt, %struct.SDL_AtomicInt, i8, i8, ptr, ptr, ptr, i32, ptr, i8, ptr, ptr }

@current_audio = internal global %struct.SDL_AudioDriver zeroinitializer, align 8
@.str.2 = private unnamed_addr constant [31 x i8] c"SDL_AUDIO_DEVICE_SAMPLE_FRAMES\00", align 1
@last_device_instance_id = internal global %struct.SDL_AtomicInt zeroinitializer, align 4

; Function Attrs: nounwind uwtable
define hidden void @RefPhysicalAudioDevice(ptr noundef %0) #0 {
  %2 = alloca ptr, align 8
  store ptr %0, ptr %2, align 8
  %3 = load ptr, ptr %2, align 8
  %4 = getelementptr inbounds nuw %struct.SDL_AudioDevice, ptr %3, i32 0, i32 2
  %5 = call i32 @SDL_AddAtomicInt_REAL(ptr noundef %4, i32 noundef 1)
  ret void
}

; Function Attrs: nounwind uwtable
define internal i32 @AssignAudioDeviceInstanceId(i1 noundef zeroext %0, i1 noundef zeroext %1) #0 {
  %3 = alloca i8, align 1
  %4 = alloca i8, align 1
  %5 = alloca i32, align 4
  %6 = alloca i32, align 4
  %7 = zext i1 %0 to i8
  store i8 %7, ptr %3, align 1
  %8 = zext i1 %1 to i8
  store i8 %8, ptr %4, align 1
  call void @llvm.lifetime.start.p0(i64 4, ptr %5) #6
  %9 = load i8, ptr %3, align 1, !range !5, !noundef !6
  %10 = trunc i8 %9 to i1
  %11 = select i1 %10, i32 0, i32 1
  %12 = load i8, ptr %4, align 1, !range !5, !noundef !6
  %13 = trunc i8 %12 to i1
  %14 = select i1 %13, i32 0, i32 2
  %15 = or i32 %11, %14
  store i32 %15, ptr %5, align 4
  call void @llvm.lifetime.start.p0(i64 4, ptr %6) #6
  %16 = call i32 @SDL_AddAtomicInt_REAL(ptr noundef @last_device_instance_id, i32 noundef 1)
  %17 = add nsw i32 %16, 1
  %18 = shl i32 %17, 2
  %19 = load i32, ptr %5, align 4
  %20 = or i32 %18, %19
  store i32 %20, ptr %6, align 4
  br label %21

21:                                               ; preds = %2
  br label %22

22:                                               ; preds = %21
  br label %23

23:                                               ; preds = %22
  %24 = load i32, ptr %6, align 4
  call void @llvm.lifetime.end.p0(i64 4, ptr %6) #6
  call void @llvm.lifetime.end.p0(i64 4, ptr %5) #6
  ret i32 %24
}

; Function Attrs: nounwind uwtable
define hidden i32 @SDL_GetSilenceValueForFormat_REAL(i32 noundef %0) #0 {
  %2 = alloca i32, align 4
  store i32 %0, ptr %2, align 4
  %3 = load i32, ptr %2, align 4
  %4 = icmp eq i32 %3, 8
  %5 = select i1 %4, i32 128, i32 0
  ret i32 %5
}

; Function Attrs: nounwind uwtable
define hidden i32 @SDL_GetDefaultSampleFramesFromFreq(i32 noundef %0) #0 {
  %2 = alloca i32, align 4
  %3 = alloca i32, align 4
  %4 = alloca ptr, align 8
  %5 = alloca i32, align 4
  %6 = alloca i32, align 4
  store i32 %0, ptr %3, align 4
  call void @llvm.lifetime.start.p0(i64 8, ptr %4) #6
  %7 = call ptr @SDL_GetHint_REAL(ptr noundef @.str.2)
  store ptr %7, ptr %4, align 8
  %8 = load ptr, ptr %4, align 8
  %9 = icmp ne ptr %8, null
  br i1 %9, label %10, label %21

10:                                               ; preds = %1
  call void @llvm.lifetime.start.p0(i64 4, ptr %5) #6
  %11 = load ptr, ptr %4, align 8
  %12 = call i32 @SDL_atoi_REAL(ptr noundef %11)
  store i32 %12, ptr %5, align 4
  %13 = load i32, ptr %5, align 4
  %14 = icmp sgt i32 %13, 0
  br i1 %14, label %15, label %17

15:                                               ; preds = %10
  %16 = load i32, ptr %5, align 4
  store i32 %16, ptr %2, align 4
  store i32 1, ptr %6, align 4
  br label %18

17:                                               ; preds = %10
  store i32 0, ptr %6, align 4
  br label %18

18:                                               ; preds = %17, %15
  call void @llvm.lifetime.end.p0(i64 4, ptr %5) #6
  %19 = load i32, ptr %6, align 4
  switch i32 %19, label %34 [
    i32 0, label %20
  ]

20:                                               ; preds = %18
  br label %21

21:                                               ; preds = %20, %1
  %22 = load i32, ptr %3, align 4
  %23 = icmp sle i32 %22, 22050
  br i1 %23, label %24, label %25

24:                                               ; preds = %21
  store i32 512, ptr %2, align 4
  store i32 1, ptr %6, align 4
  br label %34

25:                                               ; preds = %21
  %26 = load i32, ptr %3, align 4
  %27 = icmp sle i32 %26, 48000
  br i1 %27, label %28, label %29

28:                                               ; preds = %25
  store i32 1024, ptr %2, align 4
  store i32 1, ptr %6, align 4
  br label %34

29:                                               ; preds = %25
  %30 = load i32, ptr %3, align 4
  %31 = icmp sle i32 %30, 96000
  br i1 %31, label %32, label %33

32:                                               ; preds = %29
  store i32 2048, ptr %2, align 4
  store i32 1, ptr %6, align 4
  br label %34

33:                                               ; preds = %29
  store i32 4096, ptr %2, align 4
  store i32 1, ptr %6, align 4
  br label %34

34:                                               ; preds = %33, %32, %28, %24, %18
  call void @llvm.lifetime.end.p0(i64 8, ptr %4) #6
  %35 = load i32, ptr %2, align 4
  ret i32 %35
}

; Function Attrs: nounwind uwtable
define internal ptr @CreatePhysicalAudioDevice(ptr noundef %0, i1 noundef zeroext %1, ptr noundef %2, ptr noundef %3, ptr noundef %4) #0 {
  %6 = alloca ptr, align 8
  %7 = alloca ptr, align 8
  %8 = alloca i8, align 1
  %9 = alloca ptr, align 8
  %10 = alloca ptr, align 8
  %11 = alloca ptr, align 8
  %12 = alloca i32, align 4
  %13 = alloca i32, align 4
  %14 = alloca ptr, align 8
  store ptr %0, ptr %7, align 8
  %15 = zext i1 %1 to i8
  store i8 %15, ptr %8, align 1
  store ptr %2, ptr %9, align 8
  store ptr %3, ptr %10, align 8
  store ptr %4, ptr %11, align 8
  br label %16

16:                                               ; preds = %5
  br label %17

17:                                               ; preds = %16
  %18 = load ptr, ptr getelementptr inbounds nuw (%struct.SDL_AudioDriver, ptr @current_audio, i32 0, i32 3), align 8
  call void @SDL_LockRWLockForReading_REAL(ptr noundef %18)
  call void @llvm.lifetime.start.p0(i64 4, ptr %12) #6
  %19 = call i32 @SDL_GetAtomicInt_REAL(ptr noundef getelementptr inbounds nuw (%struct.SDL_AudioDriver, ptr @current_audio, i32 0, i32 12))
  store i32 %19, ptr %12, align 4
  %20 = load ptr, ptr getelementptr inbounds nuw (%struct.SDL_AudioDriver, ptr @current_audio, i32 0, i32 3), align 8
  call void @SDL_UnlockRWLock_REAL(ptr noundef %20)
  %21 = load i32, ptr %12, align 4
  %22 = icmp ne i32 %21, 0
  br i1 %22, label %23, label %24

23:                                               ; preds = %17
  store ptr null, ptr %6, align 8
  store i32 1, ptr %13, align 4
  br label %137

24:                                               ; preds = %17
  call void @llvm.lifetime.start.p0(i64 8, ptr %14) #6
  %25 = call noalias ptr @SDL_calloc_REAL(i64 noundef 1, i64 noundef 216) #7
  store ptr %25, ptr %14, align 8
  %26 = load ptr, ptr %14, align 8
  %27 = icmp ne ptr %26, null
  br i1 %27, label %29, label %28

28:                                               ; preds = %24
  store ptr null, ptr %6, align 8
  store i32 1, ptr %13, align 4
  br label %136

29:                                               ; preds = %24
  %30 = load ptr, ptr %7, align 8
  %31 = call noalias ptr @SDL_strdup_REAL(ptr noundef %30)
  %32 = load ptr, ptr %14, align 8
  %33 = getelementptr inbounds nuw %struct.SDL_AudioDevice, ptr %32, i32 0, i32 9
  store ptr %31, ptr %33, align 8
  %34 = load ptr, ptr %14, align 8
  %35 = getelementptr inbounds nuw %struct.SDL_AudioDevice, ptr %34, i32 0, i32 9
  %36 = load ptr, ptr %35, align 8
  %37 = icmp ne ptr %36, null
  br i1 %37, label %40, label %38

38:                                               ; preds = %29
  %39 = load ptr, ptr %14, align 8
  call void @SDL_free_REAL(ptr noundef %39)
  store ptr null, ptr %6, align 8
  store i32 1, ptr %13, align 4
  br label %136

40:                                               ; preds = %29
  %41 = call ptr @SDL_CreateMutex_REAL()
  %42 = load ptr, ptr %14, align 8
  %43 = getelementptr inbounds nuw %struct.SDL_AudioDevice, ptr %42, i32 0, i32 0
  store ptr %41, ptr %43, align 8
  %44 = load ptr, ptr %14, align 8
  %45 = getelementptr inbounds nuw %struct.SDL_AudioDevice, ptr %44, i32 0, i32 0
  %46 = load ptr, ptr %45, align 8
  %47 = icmp ne ptr %46, null
  br i1 %47, label %53, label %48

48:                                               ; preds = %40
  %49 = load ptr, ptr %14, align 8
  %50 = getelementptr inbounds nuw %struct.SDL_AudioDevice, ptr %49, i32 0, i32 9
  %51 = load ptr, ptr %50, align 8
  call void @SDL_free_REAL(ptr noundef %51)
  %52 = load ptr, ptr %14, align 8
  call void @SDL_free_REAL(ptr noundef %52)
  store ptr null, ptr %6, align 8
  store i32 1, ptr %13, align 4
  br label %136

53:                                               ; preds = %40
  %54 = call ptr @SDL_CreateCondition_REAL()
  %55 = load ptr, ptr %14, align 8
  %56 = getelementptr inbounds nuw %struct.SDL_AudioDevice, ptr %55, i32 0, i32 1
  store ptr %54, ptr %56, align 8
  %57 = load ptr, ptr %14, align 8
  %58 = getelementptr inbounds nuw %struct.SDL_AudioDevice, ptr %57, i32 0, i32 1
  %59 = load ptr, ptr %58, align 8
  %60 = icmp ne ptr %59, null
  br i1 %60, label %69, label %61

61:                                               ; preds = %53
  %62 = load ptr, ptr %14, align 8
  %63 = getelementptr inbounds nuw %struct.SDL_AudioDevice, ptr %62, i32 0, i32 0
  %64 = load ptr, ptr %63, align 8
  call void @SDL_DestroyMutex_REAL(ptr noundef %64)
  %65 = load ptr, ptr %14, align 8
  %66 = getelementptr inbounds nuw %struct.SDL_AudioDevice, ptr %65, i32 0, i32 9
  %67 = load ptr, ptr %66, align 8
  call void @SDL_free_REAL(ptr noundef %67)
  %68 = load ptr, ptr %14, align 8
  call void @SDL_free_REAL(ptr noundef %68)
  store ptr null, ptr %6, align 8
  store i32 1, ptr %13, align 4
  br label %136

69:                                               ; preds = %53
  %70 = load ptr, ptr %14, align 8
  %71 = getelementptr inbounds nuw %struct.SDL_AudioDevice, ptr %70, i32 0, i32 18
  %72 = call i32 @SDL_SetAtomicInt_REAL(ptr noundef %71, i32 noundef 0)
  %73 = load ptr, ptr %14, align 8
  %74 = getelementptr inbounds nuw %struct.SDL_AudioDevice, ptr %73, i32 0, i32 19
  %75 = call i32 @SDL_SetAtomicInt_REAL(ptr noundef %74, i32 noundef 0)
  %76 = load i8, ptr %8, align 1, !range !5, !noundef !6
  %77 = trunc i8 %76 to i1
  %78 = load ptr, ptr %14, align 8
  %79 = getelementptr inbounds nuw %struct.SDL_AudioDevice, ptr %78, i32 0, i32 20
  %80 = zext i1 %77 to i8
  store i8 %80, ptr %79, align 4
  %81 = load ptr, ptr %14, align 8
  %82 = getelementptr inbounds nuw %struct.SDL_AudioDevice, ptr %81, i32 0, i32 12
  %83 = load ptr, ptr %9, align 8
  call void @llvm.memcpy.p0.p0.i64(ptr align 8 %82, ptr align 4 %83, i64 12, i1 false)
  %84 = load ptr, ptr %14, align 8
  %85 = getelementptr inbounds nuw %struct.SDL_AudioDevice, ptr %84, i32 0, i32 15
  %86 = load ptr, ptr %9, align 8
  call void @llvm.memcpy.p0.p0.i64(ptr align 8 %85, ptr align 4 %86, i64 12, i1 false)
  %87 = load ptr, ptr %14, align 8
  %88 = getelementptr inbounds nuw %struct.SDL_AudioDevice, ptr %87, i32 0, i32 12
  %89 = getelementptr inbounds nuw %struct.SDL_AudioSpec, ptr %88, i32 0, i32 2
  %90 = load i32, ptr %89, align 8
  %91 = call i32 @SDL_GetDefaultSampleFramesFromFreq(i32 noundef %90)
  %92 = load ptr, ptr %14, align 8
  %93 = getelementptr inbounds nuw %struct.SDL_AudioDevice, ptr %92, i32 0, i32 16
  store i32 %91, ptr %93, align 4
  %94 = load ptr, ptr %14, align 8
  %95 = getelementptr inbounds nuw %struct.SDL_AudioDevice, ptr %94, i32 0, i32 12
  %96 = getelementptr inbounds nuw %struct.SDL_AudioSpec, ptr %95, i32 0, i32 0
  %97 = load i32, ptr %96, align 8
  %98 = call i32 @SDL_GetSilenceValueForFormat_REAL(i32 noundef %97)
  %99 = load ptr, ptr %14, align 8
  %100 = getelementptr inbounds nuw %struct.SDL_AudioDevice, ptr %99, i32 0, i32 17
  store i32 %98, ptr %100, align 8
  %101 = load ptr, ptr %10, align 8
  %102 = load ptr, ptr %14, align 8
  %103 = getelementptr inbounds nuw %struct.SDL_AudioDevice, ptr %102, i32 0, i32 11
  store ptr %101, ptr %103, align 8
  %104 = load i8, ptr %8, align 1, !range !5, !noundef !6
  %105 = trunc i8 %104 to i1
  %106 = call i32 @AssignAudioDeviceInstanceId(i1 noundef zeroext %105, i1 noundef zeroext false)
  %107 = load ptr, ptr %14, align 8
  %108 = getelementptr inbounds nuw %struct.SDL_AudioDevice, ptr %107, i32 0, i32 10
  store i32 %106, ptr %108, align 8
  %109 = load ptr, ptr getelementptr inbounds nuw (%struct.SDL_AudioDriver, ptr @current_audio, i32 0, i32 3), align 8
  call void @SDL_LockRWLockForWriting_REAL(ptr noundef %109)
  %110 = load ptr, ptr getelementptr inbounds nuw (%struct.SDL_AudioDriver, ptr @current_audio, i32 0, i32 4), align 8
  %111 = load ptr, ptr %14, align 8
  %112 = getelementptr inbounds nuw %struct.SDL_AudioDevice, ptr %111, i32 0, i32 10
  %113 = load i32, ptr %112, align 8
  %114 = zext i32 %113 to i64
  %115 = inttoptr i64 %114 to ptr
  %116 = load ptr, ptr %14, align 8
  %117 = call zeroext i1 @SDL_InsertIntoHashTable(ptr noundef %110, ptr noundef %115, ptr noundef %116, i1 noundef zeroext false)
  br i1 %117, label %118, label %121

118:                                              ; preds = %69
  %119 = load ptr, ptr %11, align 8
  %120 = call i32 @SDL_AddAtomicInt_REAL(ptr noundef %119, i32 noundef 1)
  br label %132

121:                                              ; preds = %69
  %122 = load ptr, ptr %14, align 8
  %123 = getelementptr inbounds nuw %struct.SDL_AudioDevice, ptr %122, i32 0, i32 1
  %124 = load ptr, ptr %123, align 8
  call void @SDL_DestroyCondition_REAL(ptr noundef %124)
  %125 = load ptr, ptr %14, align 8
  %126 = getelementptr inbounds nuw %struct.SDL_AudioDevice, ptr %125, i32 0, i32 0
  %127 = load ptr, ptr %126, align 8
  call void @SDL_DestroyMutex_REAL(ptr noundef %127)
  %128 = load ptr, ptr %14, align 8
  %129 = getelementptr inbounds nuw %struct.SDL_AudioDevice, ptr %128, i32 0, i32 9
  %130 = load ptr, ptr %129, align 8
  call void @SDL_free_REAL(ptr noundef %130)
  %131 = load ptr, ptr %14, align 8
  call void @SDL_free_REAL(ptr noundef %131)
  store ptr null, ptr %14, align 8
  br label %132

132:                                              ; preds = %121, %118
  %133 = load ptr, ptr getelementptr inbounds nuw (%struct.SDL_AudioDriver, ptr @current_audio, i32 0, i32 3), align 8
  call void @SDL_UnlockRWLock_REAL(ptr noundef %133)
  %134 = load ptr, ptr %14, align 8
  call void @RefPhysicalAudioDevice(ptr noundef %134)
  %135 = load ptr, ptr %14, align 8
  store ptr %135, ptr %6, align 8
  store i32 1, ptr %13, align 4
  br label %136

136:                                              ; preds = %132, %61, %48, %38, %28
  call void @llvm.lifetime.end.p0(i64 8, ptr %14) #6
  br label %137

137:                                              ; preds = %136, %23
  call void @llvm.lifetime.end.p0(i64 4, ptr %12) #6
  %138 = load ptr, ptr %6, align 8
  ret ptr %138
}