; Function Attrs: nounwind uwtable
define internal fastcc noundef ptr @CreatePhysicalAudioDevice(ptr noundef %0, i1 noundef zeroext %1, ptr noundef nonnull readonly captures(none) %2, ptr noundef %3, ptr noundef %4) unnamed_addr #0 {
  %6 = zext i1 %1 to i8
  %7 = load ptr, ptr getelementptr inbounds nuw (i8, ptr @current_audio, i64 136), align 8
  tail call void @SDL_LockRWLockForReading_REAL(ptr noundef %7) #14
  %8 = tail call i32 @SDL_GetAtomicInt_REAL(ptr noundef nonnull getelementptr inbounds nuw (i8, ptr @current_audio, i64 200)) #14
  %9 = load ptr, ptr getelementptr inbounds nuw (i8, ptr @current_audio, i64 136), align 8
  tail call void @SDL_UnlockRWLock_REAL(ptr noundef %9) #14
  %.not = icmp eq i32 %8, 0
  br i1 %.not, label %10, label %75

10:                                               ; preds = %5
  %11 = tail call noalias dereferenceable_or_null(216) ptr @SDL_calloc_REAL(i64 noundef 1, i64 noundef 216) #15
  %.not42 = icmp eq ptr %11, null
  br i1 %.not42, label %75, label %12

12:                                               ; preds = %10
  %13 = tail call noalias ptr @SDL_strdup_REAL(ptr noundef %0) #14
  %14 = getelementptr inbounds nuw i8, ptr %11, i64 72
  store ptr %13, ptr %14, align 8
  %.not43 = icmp eq ptr %13, null
  br i1 %.not43, label %15, label %16

15:                                               ; preds = %12
  tail call void @SDL_free_REAL(ptr noundef nonnull %11) #14
  br label %75

16:                                               ; preds = %12
  %17 = tail call ptr @SDL_CreateMutex_REAL() #14
  store ptr %17, ptr %11, align 8
  %.not44 = icmp eq ptr %17, null
  br i1 %.not44, label %18, label %20

18:                                               ; preds = %16
  %19 = load ptr, ptr %14, align 8
  tail call void @SDL_free_REAL(ptr noundef %19) #14
  tail call void @SDL_free_REAL(ptr noundef nonnull %11) #14
  br label %75

20:                                               ; preds = %16
  %21 = tail call ptr @SDL_CreateCondition_REAL() #14
  %22 = getelementptr inbounds nuw i8, ptr %11, i64 8
  store ptr %21, ptr %22, align 8
  %.not45 = icmp eq ptr %21, null
  br i1 %.not45, label %23, label %26

23:                                               ; preds = %20
  %24 = load ptr, ptr %11, align 8
  tail call void @SDL_DestroyMutex_REAL(ptr noundef %24) #14
  %25 = load ptr, ptr %14, align 8
  tail call void @SDL_free_REAL(ptr noundef %25) #14
  tail call void @SDL_free_REAL(ptr noundef nonnull %11) #14
  br label %75

26:                                               ; preds = %20
  %27 = getelementptr inbounds nuw i8, ptr %11, i64 140
  %28 = tail call i32 @SDL_SetAtomicInt_REAL(ptr noundef nonnull %27, i32 noundef 0) #14
  %29 = getelementptr inbounds nuw i8, ptr %11, i64 144
  %30 = tail call i32 @SDL_SetAtomicInt_REAL(ptr noundef nonnull %29, i32 noundef 0) #14
  %31 = getelementptr inbounds nuw i8, ptr %11, i64 148
  store i8 %6, ptr %31, align 4
  %32 = getelementptr inbounds nuw i8, ptr %11, i64 96
  tail call void @llvm.memcpy.p0.p0.i64(ptr noundef nonnull align 8 dereferenceable(12) %32, ptr noundef nonnull align 4 dereferenceable(12) %2, i64 12, i1 false)
  %33 = getelementptr inbounds nuw i8, ptr %11, i64 120
  tail call void @llvm.memcpy.p0.p0.i64(ptr noundef nonnull align 8 dereferenceable(12) %33, ptr noundef nonnull align 4 dereferenceable(12) %2, i64 12, i1 false)
  %34 = getelementptr inbounds nuw i8, ptr %11, i64 104
  %35 = load i32, ptr %34, align 8
  %36 = tail call ptr @SDL_GetHint_REAL(ptr noundef nonnull @.str.2) #14
  %.not.i = icmp eq ptr %36, null
  br i1 %.not.i, label %40, label %37

37:                                               ; preds = %26
  %38 = tail call i32 @SDL_atoi_REAL(ptr noundef nonnull %36) #14
  %39 = icmp slt i32 %38, 1
  br i1 %39, label %40, label %SDL_GetDefaultSampleFramesFromFreq.exit

40:                                               ; preds = %37, %26
  %41 = icmp slt i32 %35, 22051
  br i1 %41, label %SDL_GetDefaultSampleFramesFromFreq.exit, label %42

42:                                               ; preds = %40
  %43 = icmp samesign ult i32 %35, 48001
  br i1 %43, label %SDL_GetDefaultSampleFramesFromFreq.exit, label %44

44:                                               ; preds = %42
  %45 = icmp samesign ult i32 %35, 96001
  %..i = select i1 %45, i32 2048, i32 4096
  br label %SDL_GetDefaultSampleFramesFromFreq.exit

SDL_GetDefaultSampleFramesFromFreq.exit:          ; preds = %37, %40, %42, %44
  %.1.i = phi i32 [ %38, %37 ], [ 512, %40 ], [ 1024, %42 ], [ %..i, %44 ]
  %46 = getelementptr inbounds nuw i8, ptr %11, i64 132
  store i32 %.1.i, ptr %46, align 4
  %47 = load i32, ptr %32, align 8
  %48 = icmp eq i32 %47, 8
  %49 = select i1 %48, i32 128, i32 0
  %50 = getelementptr inbounds nuw i8, ptr %11, i64 136
  store i32 %49, ptr %50, align 8
  %51 = getelementptr inbounds nuw i8, ptr %11, i64 88
  store ptr %3, ptr %51, align 8
  %not..i = xor i1 %1, true
  %52 = zext i1 %not..i to i32
  %53 = or disjoint i32 %52, 2
  %54 = tail call i32 @SDL_AddAtomicInt_REAL(ptr noundef nonnull @last_device_instance_id, i32 noundef 1) #14
  %55 = shl i32 %54, 2
  %56 = add i32 %55, 4
  %57 = or disjoint i32 %56, %53
  %58 = getelementptr inbounds nuw i8, ptr %11, i64 80
  store i32 %57, ptr %58, align 8
  %59 = load ptr, ptr getelementptr inbounds nuw (i8, ptr @current_audio, i64 136), align 8
  tail call void @SDL_LockRWLockForWriting_REAL(ptr noundef %59) #14
  %60 = load ptr, ptr getelementptr inbounds nuw (i8, ptr @current_audio, i64 144), align 8
  %61 = load i32, ptr %58, align 8
  %62 = zext i32 %61 to i64
  %63 = inttoptr i64 %62 to ptr
  %64 = tail call zeroext i1 @SDL_InsertIntoHashTable(ptr noundef %60, ptr noundef %63, ptr noundef nonnull %11, i1 noundef zeroext false) #14
  br i1 %64, label %65, label %67

65:                                               ; preds = %SDL_GetDefaultSampleFramesFromFreq.exit
  %66 = tail call i32 @SDL_AddAtomicInt_REAL(ptr noundef %4, i32 noundef 1) #14
  br label %71

67:                                               ; preds = %SDL_GetDefaultSampleFramesFromFreq.exit
  %68 = load ptr, ptr %22, align 8
  tail call void @SDL_DestroyCondition_REAL(ptr noundef %68) #14
  %69 = load ptr, ptr %11, align 8
  tail call void @SDL_DestroyMutex_REAL(ptr noundef %69) #14
  %70 = load ptr, ptr %14, align 8
  tail call void @SDL_free_REAL(ptr noundef %70) #14
  tail call void @SDL_free_REAL(ptr noundef nonnull %11) #14
  br label %71

71:                                               ; preds = %67, %65
  %.0 = phi ptr [ %11, %65 ], [ null, %67 ]
  %72 = load ptr, ptr getelementptr inbounds nuw (i8, ptr @current_audio, i64 136), align 8
  tail call void @SDL_UnlockRWLock_REAL(ptr noundef %72) #14
  %73 = getelementptr inbounds nuw i8, ptr %.0, i64 16
  %74 = tail call i32 @SDL_AddAtomicInt_REAL(ptr noundef nonnull %73, i32 noundef 1) #14
  br label %75

75:                                               ; preds = %15, %18, %23, %71, %10, %5
  %.040 = phi ptr [ null, %5 ], [ %.0, %71 ], [ null, %23 ], [ null, %18 ], [ null, %15 ], [ null, %10 ]
  ret ptr %.040
}